; Function Attrs: mustprogress nofree norecurse nosync nounwind willreturn memory(argmem: read) uwtable
define hidden noundef zeroext i1 @_ZNK19OpenColorIO_v2_4dev10CTFVersiongtERKS0_(ptr noundef nonnull readonly align 4 dereferenceable(12) %this, ptr noundef nonnull readonly align 4 dereferenceable(12) %rhs) local_unnamed_addr #7 align 2 {
entry:
  %cmp.i = icmp eq ptr %rhs, %this
  br i1 %cmp.i, label %_ZNK19OpenColorIO_v2_4dev10CTFVersionltERKS0_.exit, label %if.end.i

if.end.i:                                         ; preds = %entry
  %0 = load i32, ptr %rhs, align 4
  %1 = load i32, ptr %this, align 4
  %cmp3.i = icmp ult i32 %0, %1
  br i1 %cmp3.i, label %_ZNK19OpenColorIO_v2_4dev10CTFVersionltERKS0_.exit, label %if.else.i

if.else.i:                                        ; preds = %if.end.i
  %cmp7.i = icmp ugt i32 %0, %1
  br i1 %cmp7.i, label %_ZNK19OpenColorIO_v2_4dev10CTFVersionltERKS0_.exit, label %if.else9.i

if.else9.i:                                       ; preds = %if.else.i
  %m_minor.i = getelementptr inbounds i8, ptr %rhs, i64 4
  %2 = load i32, ptr %m_minor.i, align 4
  %m_minor10.i = getelementptr inbounds i8, ptr %this, i64 4
  %3 = load i32, ptr %m_minor10.i, align 4
  %cmp11.i = icmp ult i32 %2, %3
  br i1 %cmp11.i, label %_ZNK19OpenColorIO_v2_4dev10CTFVersionltERKS0_.exit, label %if.else13.i

if.else13.i:                                      ; preds = %if.else9.i
  %cmp16.i = icmp ugt i32 %2, %3
  br i1 %cmp16.i, label %_ZNK19OpenColorIO_v2_4dev10CTFVersionltERKS0_.exit, label %if.else18.i

if.else18.i:                                      ; preds = %if.else13.i
  %m_revision.i = getelementptr inbounds i8, ptr %rhs, i64 8
  %4 = load i32, ptr %m_revision.i, align 4
  %m_revision19.i = getelementptr inbounds i8, ptr %this, i64 8
  %5 = load i32, ptr %m_revision19.i, align 4
  %cmp20.i = icmp ult i32 %4, %5
  br label %_ZNK19OpenColorIO_v2_4dev10CTFVersionltERKS0_.exit

_ZNK19OpenColorIO_v2_4dev10CTFVersionltERKS0_.exit: ; preds = %entry, %if.end.i, %if.else.i, %if.else9.i, %if.else13.i, %if.else18.i
  %retval.0.i = phi i1 [ false, %entry ], [ true, %if.end.i ], [ false, %if.else.i ], [ true, %if.else9.i ], [ false, %if.else13.i ], [ %cmp20.i, %if.else18.i ]
  ret i1 %retval.0.i
}